; Function Attrs: nounwind uwtable
define internal range(i32 0, 2) i32 @pderive_test_init(ptr noundef captures(none) %0, ptr noundef %1) #1 {
  %3 = tail call fastcc i32 @pkey_test_init_keyctx(ptr noundef %0, ptr noundef %1, i32 noundef 0)
  %4 = getelementptr inbounds nuw i8, ptr %0, i64 35224
  %5 = load i32, ptr %4, align 8, !tbaa !26
  %6 = icmp eq i32 %5, 0
  %7 = icmp ne i32 %3, 0
  %or.cond.i = select i1 %6, i1 %7, i1 false
  br i1 %or.cond.i, label %8, label %pkey_test_init.exit

8:                                                ; preds = %2
  %9 = getelementptr inbounds nuw i8, ptr %0, i64 35272
  %10 = load ptr, ptr %9, align 8, !tbaa !20
  %11 = getelementptr inbounds nuw i8, ptr %10, i64 16
  store ptr @EVP_PKEY_derive_init_ex, ptr %11, align 8, !tbaa !284
  %12 = getelementptr inbounds nuw i8, ptr %10, i64 32
  store ptr null, ptr %12, align 8, !tbaa !287
  %13 = tail call ptr @OPENSSL_sk_new_null() #10
  %14 = getelementptr inbounds nuw i8, ptr %10, i64 72
  store ptr %13, ptr %14, align 8, !tbaa !288
  %15 = tail call ptr @OPENSSL_sk_new_null() #10
  %16 = getelementptr inbounds nuw i8, ptr %10, i64 80
  store ptr %15, ptr %16, align 8, !tbaa !289
  br label %pkey_test_init.exit

pkey_test_init.exit:                              ; preds = %2, %8
  %.0.i = phi i32 [ 1, %8 ], [ %3, %2 ]
  ret i32 %.0.i
}